ccopy_reg
_reconstructor
p0
(cenvironment
Environment
p1
c__builtin__
tuple
p2
((imodel.Hockeyist
Hockeyist
p3
(dp4
S'dexterity'
p5
I100
sS'speed_y'
p6
F0.0
sS'speed_x'
p7
F0.0
sS'last_action'
p8
NsS'last_action_tick'
p9
NsS'remaining_cooldown_ticks'
p10
I0
sS'radius'
p11
F30.0
sS'player_id'
p12
I2
sS'id'
p13
I20
sS'strength'
p14
I100
sS'angle'
p15
F0.0
sS'endurance'
p16
I100
sS'stamina'
p17
F2000.0
sS'state'
p18
I0
sS'type'
p19
I1
sS'agility'
p20
I100
sS'angular_speed'
p21
F0.0
sS'teammate'
p22
I01
sS'remaining_knockdown_ticks'
p23
I0
sS'teammate_index'
p24
I0
sS'original_position_index'
p25
I0
sS'swing_ticks'
p26
I0
sS'mass'
p27
F30.0
sS'y'
p28
F460.0
sS'x'
p29
F450.0
sb(imodel.World
World
p30
(dp31
S'players'
p32
(lp33
(imodel.Player
Player
p34
(dp35
S'me'
p36
I00
sS'net_front'
p37
F1135.0
sS'just_missed_goal'
p38
I00
sS'name'
p39
VMyStrategy
p40
sS'net_bottom'
p41
F560.0
sS'strategy_crashed'
p42
I00
sS'net_top'
p43
F360.0
sS'goal_count'
p44
I0
sS'net_back'
p45
F1200.0
sS'net_left'
p46
F1135.0
sS'net_right'
p47
F1200.0
sg13
I1
sS'just_scored_goal'
p48
I00
sba(imodel.Player
Player
p49
(dp50
g36
I01
sg37
F65.0
sg38
I00
sg39
VMyStrategy (2)
p51
sg41
F560.0
sg42
I00
sg43
F360.0
sg44
I0
sg45
F0.0
sg46
F0.0
sg47
F65.0
sg13
I2
sg48
I00
sbasS'puck'
p52
(imodel.Puck
Puck
p53
(dp54
g6
F0.0
sg7
F0.0
sg15
F0.0
sS'owner_player_id'
p55
I-1
sg21
F0.0
sS'owner_hockeyist_id'
p56
I-1
sg11
F20.0
sg29
F600.0
sg28
F460.0
sg27
F5.0
sg13
I23
sbsS'tick_count'
p57
I6000
sS'hockeyists'
p58
(lp59
(imodel.Hockeyist
Hockeyist
p60
(dp61
g5
I100
sg6
F0.0
sg7
F0.0
sg8
Nsg9
Nsg10
I0
sg11
F30.0
sg12
I1
sg13
I18
sg14
I100
sg15
F3.1415927410125732
sg16
I100
sg17
F2000.0
sg18
I0
sg19
I1
sg20
I100
sg21
F0.0
sg22
I00
sg23
I0
sg24
I1
sg25
I1
sg26
I0
sg27
F30.0
sg28
F460.0
sg29
F900.0
sba(imodel.Hockeyist
Hockeyist
p62
(dp63
g5
I100
sg6
F0.0
sg7
F0.0
sg8
Nsg9
Nsg10
I0
sg11
F30.0
sg12
I2
sg13
I22
sg14
I100
sg15
F0.0
sg16
I100
sg17
F2000.0
sg18
I0
sg19
I0
sg20
I100
sg21
F0.0
sg22
I01
sg23
I0
sg24
I2
sg25
I-1
sg26
I0
sg27
F3.4028234663852886e+38
sg28
F460.0
sg29
F95.0
sba(imodel.Hockeyist
Hockeyist
p64
(dp65
g5
I100
sg6
F0.0
sg7
F0.0
sg8
Nsg9
Nsg10
I0
sg11
F30.0
sg12
I2
sg13
I20
sg14
I100
sg15
F0.0
sg16
I100
sg17
F2000.0
sg18
I0
sg19
I1
sg20
I100
sg21
F0.0
sg22
I01
sg23
I0
sg24
I0
sg25
I0
sg26
I0
sg27
F30.0
sg28
F460.0
sg29
F450.0
sba(imodel.Hockeyist
Hockeyist
p66
(dp67
g5
I100
sg6
F0.0
sg7
F0.0
sg8
Nsg9
Nsg10
I0
sg11
F30.0
sg12
I1
sg13
I17
sg14
I100
sg15
F3.1415927410125732
sg16
I100
sg17
F2000.0
sg18
I0
sg19
I1
sg20
I100
sg21
F0.0
sg22
I00
sg23
I0
sg24
I0
sg25
I0
sg26
I0
sg27
F30.0
sg28
F460.0
sg29
F750.0
sba(imodel.Hockeyist
Hockeyist
p68
(dp69
g5
I100
sg6
F0.0
sg7
F0.0
sg8
Nsg9
Nsg10
I0
sg11
F30.0
sg12
I2
sg13
I21
sg14
I100
sg15
F0.0
sg16
I100
sg17
F2000.0
sg18
I0
sg19
I1
sg20
I100
sg21
F0.0
sg22
I01
sg23
I0
sg24
I1
sg25
I1
sg26
I0
sg27
F30.0
sg28
F460.0
sg29
F300.0
sba(imodel.Hockeyist
Hockeyist
p70
(dp71
g5
I100
sg6
F0.0
sg7
F0.0
sg8
Nsg9
Nsg10
I0
sg11
F30.0
sg12
I1
sg13
I19
sg14
I100
sg15
F3.1415927410125732
sg16
I100
sg17
F2000.0
sg18
I0
sg19
I0
sg20
I100
sg21
F0.0
sg22
I00
sg23
I0
sg24
I2
sg25
I-1
sg26
I0
sg27
F3.4028234663852886e+38
sg28
F460.0
sg29
F1105.0
sbasS'height'
p72
F800.0
sS'width'
p73
F1200.0
sS'tick'
p74
I0
sb(imodel.Game
Game
p75
(dp76
S'cancel_strike_action_cooldown_ticks'
p77
I30
sS'max_speed_to_allow_substitute'
p78
F1.0
sS'forward_hockeyist_dexterity'
p79
I105
sS'struck_hockeyist_initial_speed_factor'
p80
F4.0
sS'goal_net_height'
p81
F200.0
sS'puck_binding_range'
p82
F55.0
sS'forward_hockeyist_strength'
p83
I110
sS'goalie_max_speed'
p84
F6.0
sS'active_hockeyist_stamina_growth_per_tick'
p85
F0.5
sS'cancel_strike_stamina_cost'
p86
F0.0
sS'hockeyist_attribute_base_value'
p87
I100
sS'hockeyist_max_speed'
p88
F15.0
sS'action_cooldown_ticks_after_losing_puck'
p89
I10
sS'defenceman_hockeyist_strength'
p90
I105
sS'overtime_tick_count'
p91
I2000
sS'pass_power_factor'
p92
F0.75
sS'substitution_area_height'
p93
F60.0
sS'versatile_hockeyist_endurance'
p94
I100
sS'speed_up_stamina_cost_factor'
p95
F1.0
sS'goal_net_top'
p96
F360.0
sS'strike_stamina_cost_growth_factor'
p97
F0.5
sS'after_goal_state_tick_count'
p98
I300
sS'zero_stamina_hockeyist_effectiveness_factor'
p99
F0.75
sS'pass_stamina_cost'
p100
F40.0
sS'struck_puck_initial_speed_factor'
p101
F20.0
sS'rink_left'
p102
F65.0
sS'min_random_hockeyist_parameter'
p103
I80
sS'stick_sector'
p104
F0.5235987755982988
sS'versatile_hockeyist_dexterity'
p105
I100
sS'strike_stamina_base_cost'
p106
F20.0
sS'strike_power_growth_factor'
p107
F0.0125
sS'strike_puck_base_chance'
p108
F0.75
sS'knockdown_chance_factor'
p109
F0.5
sS'goal_net_width'
p110
F65.0
sS'turn_stamina_cost_factor'
p111
F1.0
sS'hockeyist_speed_up_factor'
p112
F0.11574074074074074
sS'versatile_hockeyist_strength'
p113
I100
sS'strike_angle_deviation'
p114
F0.03490658503988659
sS'strike_power_base_factor'
p115
F0.75
sS'stick_length'
p116
F120.0
sS'random_seed'
p117
I1669680273525780844
sS'knockdown_ticks_factor'
p118
F40.0
sS'hockeyist_turn_angle_factor'
p119
F0.05235987755982989
sS'defenceman_hockeyist_agility'
p120
I105
sS'resting_hockeyist_stamina_growth_per_tick'
p121
F1.0
sS'hockeyist_max_stamina'
p122
F2000.0
sS'versatile_hockeyist_agility'
p123
I100
sS'rink_right'
p124
F1135.0
sS'swing_action_cooldown_ticks'
p125
I10
sS'pass_angle_deviation'
p126
F0.026179938779914945
sS'forward_hockeyist_endurance'
p127
I80
sS'pass_sector'
p128
F2.0943951023931953
sS'min_action_chance'
p129
F0.05
sS'hockeyist_speed_down_factor'
p130
F0.06944444444444445
sS'default_action_cooldown_ticks'
p131
I60
sS'take_puck_stamina_cost'
p132
F10.0
sS'pick_up_puck_base_chance'
p133
F0.6
sS'take_puck_away_base_chance'
p134
F0.25
sS'forward_hockeyist_agility'
p135
I105
sS'max_random_hockeyist_parameter'
p136
I120
sS'max_action_chance'
p137
F0.95
sS'max_effective_swing_ticks'
p138
I20
sg57
I6000
sS'world_height'
p139
F800.0
sS'defenceman_hockeyist_endurance'
p140
I110
sS'world_width'
p141
F1200.0
sS'rink_bottom'
p142
F770.0
sS'swing_stamina_cost'
p143
F10.0
sS'rink_top'
p144
F150.0
sS'defenceman_hockeyist_dexterity'
p145
I80
sb(imodel.Move
Move
p146
(dp147
S'speed_up'
p148
F0.0
sS'pass_angle'
p149
F0.0
sS'turn'
p150
F0.0
sg24
I-1
sS'action'
p151
I0
sS'pass_power'
p152
F1.0
sbtp153
tp154
Rp155
ccollections
OrderedDict
p156
((lp157
(lp158
S'me'
p159
ag3
aa(lp160
S'world'
p161
ag30
aa(lp162
S'game'
p163
ag75
aa(lp164
S'move'
p165
ag146
aatp166
Rp167
b.